target datalayout = "e-m:e-p270:32:32-p271:32:32-p272:64:64-i64:64-i128:128-f80:128-n8:16:32:64-S128"
target triple = "x86_64-pc-linux-gnu"

%struct._packet_info = type { ptr, ptr, i32, i32, %struct.nstime_t, %struct.nstime_t, %struct.nstime_t, i8, ptr, ptr, ptr, ptr, %struct._address, %struct._address, %struct._address, %struct._address, %struct._address, %struct._address, i32, ptr, i8, [3 x i8], %struct.anon, i32, i32, i32, i32, ptr, i8, ptr, ptr, i16, i16, i32, i32, i16, i32, i32, ptr, ptr, ptr, i8, i8, i16, i16, i16, i32, i16, i16, ptr, ptr, ptr, ptr, ptr, i32, i32 }
%struct.nstime_t = type { i64, i32 }
%struct._address = type { i32, i32, ptr, ptr }
%struct.anon = type { i8, [3 x i8] }

@hf_id_len = internal global i32 0, align 4
@hf_id_type = internal global i32 0, align 4
@hf_sig_len = internal global i32 0, align 4
@hf_hash_method = internal global i32 0, align 4
@hf_auth_method = internal global i32 0, align 4
@hf_opcode = internal global i32 0, align 4
@hf_next_header = internal global i32 0, align 4
@hf_epoch = internal global i32 0, align 4
@hf_identity = internal global i32 0, align 4
@hf_signature = internal global i32 0, align 4
@ett_ayiya = internal global i32 0, align 4
@.str.21 = private unnamed_addr constant [6 x i8] c"AYIYA\00", align 1
@proto_ayiya = internal global i32 0, align 4
@ip_dissector_table = internal global ptr null, align 8
@.str.46 = private unnamed_addr constant [12 x i8] c"%s (0x%02x)\00", align 1

; Function Attrs: null_pointer_is_valid sspstrong uwtable
define internal i32 @dissect_ayiya(ptr noundef %0, ptr noundef %1, ptr noundef %2, ptr noundef %3) #0 {
  %5 = alloca ptr, align 8
  %6 = alloca ptr, align 8
  %7 = alloca ptr, align 8
  %8 = alloca ptr, align 8
  %9 = alloca ptr, align 8
  %10 = alloca i32, align 4
  %11 = alloca i32, align 4
  %12 = alloca i32, align 4
  %13 = alloca i32, align 4
  %14 = alloca i8, align 1
  %15 = alloca i8, align 1
  %16 = alloca ptr, align 8
  %17 = alloca ptr, align 8
  store ptr %0, ptr %5, align 8
  store ptr %1, ptr %6, align 8
  store ptr %2, ptr %7, align 8
  store ptr %3, ptr %8, align 8
  call void @llvm.lifetime.start.p0(i64 8, ptr %9) #3
  call void @llvm.lifetime.start.p0(i64 4, ptr %10) #3
  store i32 0, ptr %10, align 4
  call void @llvm.lifetime.start.p0(i64 4, ptr %11) #3
  call void @llvm.lifetime.start.p0(i64 4, ptr %12) #3
  call void @llvm.lifetime.start.p0(i64 4, ptr %13) #3
  call void @llvm.lifetime.start.p0(i64 1, ptr %14) #3
  call void @llvm.lifetime.start.p0(i64 1, ptr %15) #3
  call void @llvm.lifetime.start.p0(i64 8, ptr %16) #3
  %18 = load ptr, ptr %5, align 8
  %19 = call zeroext i8 @tvb_get_bits8(ptr noundef %18, i32 noundef 0, i32 noundef 4)
  %20 = zext i8 %19 to i32
  %21 = shl i32 1, %20
  store i32 %21, ptr %11, align 4
  %22 = load ptr, ptr %5, align 8
  %23 = call zeroext i8 @tvb_get_bits8(ptr noundef %22, i32 noundef 8, i32 noundef 4)
  %24 = zext i8 %23 to i32
  %25 = mul i32 %24, 4
  store i32 %25, ptr %12, align 4
  %26 = load ptr, ptr %5, align 8
  %27 = call zeroext i8 @tvb_get_bits8(ptr noundef %26, i32 noundef 20, i32 noundef 4)
  store i8 %27, ptr %15, align 1
  %28 = load ptr, ptr %5, align 8
  %29 = call zeroext i8 @tvb_get_uint8(ptr noundef %28, i32 noundef 3)
  store i8 %29, ptr %14, align 1
  %30 = load i32, ptr %11, align 4
  %31 = add i32 8, %30
  %32 = load i32, ptr %12, align 4
  %33 = add i32 %31, %32
  store i32 %33, ptr %13, align 4
  %34 = load ptr, ptr %6, align 8
  %35 = getelementptr inbounds nuw %struct._packet_info, ptr %34, i32 0, i32 1
  %36 = load ptr, ptr %35, align 8
  call void @col_set_str(ptr noundef %36, i32 noundef 35, ptr noundef @.str.21)
  %37 = load ptr, ptr %7, align 8
  %38 = icmp ne ptr %37, null
  br i1 %38, label %39, label %100

39:                                               ; preds = %4
  call void @llvm.lifetime.start.p0(i64 8, ptr %17) #3
  %40 = load ptr, ptr %7, align 8
  %41 = load i32, ptr @proto_ayiya, align 4
  %42 = load ptr, ptr %5, align 8
  %43 = load i32, ptr %10, align 4
  %44 = load i32, ptr %13, align 4
  %45 = call ptr (ptr, i32, ptr, i32, i32, ptr, ...) @proto_tree_add_protocol_format(ptr noundef %40, i32 noundef %41, ptr noundef %42, i32 noundef %43, i32 noundef %44, ptr noundef @.str.21)
  store ptr %45, ptr %17, align 8
  %46 = load ptr, ptr %17, align 8
  %47 = load i32, ptr @ett_ayiya, align 4
  %48 = call ptr @proto_item_add_subtree(ptr noundef %46, i32 noundef %47)
  store ptr %48, ptr %9, align 8
  %49 = load ptr, ptr %9, align 8
  %50 = load i32, ptr @hf_id_len, align 4
  %51 = load ptr, ptr %5, align 8
  %52 = call ptr @proto_tree_add_bits_item(ptr noundef %49, i32 noundef %50, ptr noundef %51, i32 noundef 0, i32 noundef 4, i32 noundef 0)
  %53 = load ptr, ptr %9, align 8
  %54 = load i32, ptr @hf_id_type, align 4
  %55 = load ptr, ptr %5, align 8
  %56 = call ptr @proto_tree_add_bits_item(ptr noundef %53, i32 noundef %54, ptr noundef %55, i32 noundef 4, i32 noundef 4, i32 noundef 0)
  %57 = load ptr, ptr %9, align 8
  %58 = load i32, ptr @hf_sig_len, align 4
  %59 = load ptr, ptr %5, align 8
  %60 = call ptr @proto_tree_add_bits_item(ptr noundef %57, i32 noundef %58, ptr noundef %59, i32 noundef 8, i32 noundef 4, i32 noundef 0)
  %61 = load ptr, ptr %9, align 8
  %62 = load i32, ptr @hf_hash_method, align 4
  %63 = load ptr, ptr %5, align 8
  %64 = call ptr @proto_tree_add_bits_item(ptr noundef %61, i32 noundef %62, ptr noundef %63, i32 noundef 12, i32 noundef 4, i32 noundef 0)
  %65 = load ptr, ptr %9, align 8
  %66 = load i32, ptr @hf_auth_method, align 4
  %67 = load ptr, ptr %5, align 8
  %68 = call ptr @proto_tree_add_bits_item(ptr noundef %65, i32 noundef %66, ptr noundef %67, i32 noundef 16, i32 noundef 4, i32 noundef 0)
  %69 = load ptr, ptr %9, align 8
  %70 = load i32, ptr @hf_opcode, align 4
  %71 = load ptr, ptr %5, align 8
  %72 = call ptr @proto_tree_add_bits_item(ptr noundef %69, i32 noundef %70, ptr noundef %71, i32 noundef 20, i32 noundef 4, i32 noundef 0)
  %73 = load ptr, ptr %9, align 8
  %74 = load i32, ptr @hf_next_header, align 4
  %75 = load ptr, ptr %5, align 8
  %76 = load i8, ptr %14, align 1
  %77 = zext i8 %76 to i32
  %78 = load i8, ptr %14, align 1
  %79 = zext i8 %78 to i32
  %80 = call ptr @ipprotostr(i32 noundef %79)
  %81 = load i8, ptr %14, align 1
  %82 = zext i8 %81 to i32
  %83 = call ptr (ptr, i32, ptr, i32, i32, i32, ptr, ...) @proto_tree_add_uint_format_value(ptr noundef %73, i32 noundef %74, ptr noundef %75, i32 noundef 3, i32 noundef 1, i32 noundef %77, ptr noundef @.str.46, ptr noundef %80, i32 noundef %82)
  %84 = load ptr, ptr %9, align 8
  %85 = load i32, ptr @hf_epoch, align 4
  %86 = load ptr, ptr %5, align 8
  %87 = call ptr @proto_tree_add_item(ptr noundef %84, i32 noundef %85, ptr noundef %86, i32 noundef 4, i32 noundef 4, i32 noundef 18)
  %88 = load ptr, ptr %9, align 8
  %89 = load i32, ptr @hf_identity, align 4
  %90 = load ptr, ptr %5, align 8
  %91 = load i32, ptr %11, align 4
  %92 = call ptr @proto_tree_add_item(ptr noundef %88, i32 noundef %89, ptr noundef %90, i32 noundef 8, i32 noundef %91, i32 noundef 0)
  %93 = load ptr, ptr %9, align 8
  %94 = load i32, ptr @hf_signature, align 4
  %95 = load ptr, ptr %5, align 8
  %96 = load i32, ptr %11, align 4
  %97 = add i32 8, %96
  %98 = load i32, ptr %12, align 4
  %99 = call ptr @proto_tree_add_item(ptr noundef %93, i32 noundef %94, ptr noundef %95, i32 noundef %97, i32 noundef %98, i32 noundef 0)
  call void @llvm.lifetime.end.p0(i64 8, ptr %17) #3
  br label %100

100:                                              ; preds = %39, %4
  %101 = load i32, ptr %13, align 4
  store i32 %101, ptr %10, align 4
  %102 = load i8, ptr %15, align 1
  %103 = zext i8 %102 to i32
  switch i32 %103, label %115 [
    i32 1, label %104
  ]

104:                                              ; preds = %100
  %105 = load ptr, ptr %5, align 8
  %106 = load i32, ptr %10, align 4
  %107 = call ptr @tvb_new_subset_remaining(ptr noundef %105, i32 noundef %106)
  store ptr %107, ptr %16, align 8
  %108 = load ptr, ptr @ip_dissector_table, align 8
  %109 = load i8, ptr %14, align 1
  %110 = zext i8 %109 to i32
  %111 = load ptr, ptr %16, align 8
  %112 = load ptr, ptr %6, align 8
  %113 = load ptr, ptr %7, align 8
  %114 = call i32 @dissector_try_uint(ptr noundef %108, i32 noundef %110, ptr noundef %111, ptr noundef %112, ptr noundef %113)
  br label %115

115:                                              ; preds = %100, %104
  %116 = load ptr, ptr %5, align 8
  %117 = call i32 @tvb_captured_length(ptr noundef %116)
  call void @llvm.lifetime.end.p0(i64 8, ptr %16) #3
  call void @llvm.lifetime.end.p0(i64 1, ptr %15) #3
  call void @llvm.lifetime.end.p0(i64 1, ptr %14) #3
  call void @llvm.lifetime.end.p0(i64 4, ptr %13) #3
  call void @llvm.lifetime.end.p0(i64 4, ptr %12) #3
  call void @llvm.lifetime.end.p0(i64 4, ptr %11) #3
  call void @llvm.lifetime.end.p0(i64 4, ptr %10) #3
  call void @llvm.lifetime.end.p0(i64 8, ptr %9) #3
  ret i32 %117
}