; Function Attrs: null_pointer_is_valid sspstrong uwtable
define internal i32 @dissect_ayiya(ptr noundef %0, ptr noundef %1, ptr noundef %2, ptr readnone captures(none) %3) #0 {
  %5 = tail call zeroext i8 @tvb_get_bits8(ptr noundef %0, i32 noundef 0, i32 noundef 4)
  %6 = zext nneg i8 %5 to i32
  %7 = shl nuw i32 1, %6
  %8 = tail call zeroext i8 @tvb_get_bits8(ptr noundef %0, i32 noundef 8, i32 noundef 4)
  %9 = zext i8 %8 to i32
  %10 = shl nuw nsw i32 %9, 2
  %11 = tail call zeroext i8 @tvb_get_bits8(ptr noundef %0, i32 noundef 20, i32 noundef 4)
  %12 = tail call zeroext i8 @tvb_get_uint8(ptr noundef %0, i32 noundef 3)
  %13 = add nuw i32 %7, 8
  %14 = add nuw i32 %13, %10
  %15 = getelementptr inbounds nuw i8, ptr %1, i64 8
  %16 = load ptr, ptr %15, align 8
  tail call void @col_set_str(ptr noundef %16, i32 noundef 35, ptr noundef nonnull @.str.21)
  %.not = icmp eq ptr %2, null
  br i1 %.not, label %44, label %17

17:                                               ; preds = %4
  %18 = load i32, ptr @proto_ayiya, align 4
  %19 = tail call ptr (ptr, i32, ptr, i32, i32, ptr, ...) @proto_tree_add_protocol_format(ptr noundef nonnull %2, i32 noundef %18, ptr noundef %0, i32 noundef 0, i32 noundef %14, ptr noundef nonnull @.str.21)
  %20 = load i32, ptr @ett_ayiya, align 4
  %21 = tail call ptr @proto_item_add_subtree(ptr noundef %19, i32 noundef %20)
  %22 = load i32, ptr @hf_id_len, align 4
  %23 = tail call ptr @proto_tree_add_bits_item(ptr noundef %21, i32 noundef %22, ptr noundef %0, i32 noundef 0, i32 noundef 4, i32 noundef 0)
  %24 = load i32, ptr @hf_id_type, align 4
  %25 = tail call ptr @proto_tree_add_bits_item(ptr noundef %21, i32 noundef %24, ptr noundef %0, i32 noundef 4, i32 noundef 4, i32 noundef 0)
  %26 = load i32, ptr @hf_sig_len, align 4
  %27 = tail call ptr @proto_tree_add_bits_item(ptr noundef %21, i32 noundef %26, ptr noundef %0, i32 noundef 8, i32 noundef 4, i32 noundef 0)
  %28 = load i32, ptr @hf_hash_method, align 4
  %29 = tail call ptr @proto_tree_add_bits_item(ptr noundef %21, i32 noundef %28, ptr noundef %0, i32 noundef 12, i32 noundef 4, i32 noundef 0)
  %30 = load i32, ptr @hf_auth_method, align 4
  %31 = tail call ptr @proto_tree_add_bits_item(ptr noundef %21, i32 noundef %30, ptr noundef %0, i32 noundef 16, i32 noundef 4, i32 noundef 0)
  %32 = load i32, ptr @hf_opcode, align 4
  %33 = tail call ptr @proto_tree_add_bits_item(ptr noundef %21, i32 noundef %32, ptr noundef %0, i32 noundef 20, i32 noundef 4, i32 noundef 0)
  %34 = load i32, ptr @hf_next_header, align 4
  %35 = zext i8 %12 to i32
  %36 = tail call ptr @ipprotostr(i32 noundef %35)
  %37 = tail call ptr (ptr, i32, ptr, i32, i32, i32, ptr, ...) @proto_tree_add_uint_format_value(ptr noundef %21, i32 noundef %34, ptr noundef %0, i32 noundef 3, i32 noundef 1, i32 noundef %35, ptr noundef nonnull @.str.46, ptr noundef %36, i32 noundef %35)
  %38 = load i32, ptr @hf_epoch, align 4
  %39 = tail call ptr @proto_tree_add_item(ptr noundef %21, i32 noundef %38, ptr noundef %0, i32 noundef 4, i32 noundef 4, i32 noundef 18)
  %40 = load i32, ptr @hf_identity, align 4
  %41 = tail call ptr @proto_tree_add_item(ptr noundef %21, i32 noundef %40, ptr noundef %0, i32 noundef 8, i32 noundef %7, i32 noundef 0)
  %42 = load i32, ptr @hf_signature, align 4
  %43 = tail call ptr @proto_tree_add_item(ptr noundef %21, i32 noundef %42, ptr noundef %0, i32 noundef %13, i32 noundef %10, i32 noundef 0)
  br label %44

44:                                               ; preds = %17, %4
  %cond = icmp eq i8 %11, 1
  br i1 %cond, label %45, label %50

45:                                               ; preds = %44
  %46 = tail call ptr @tvb_new_subset_remaining(ptr noundef %0, i32 noundef %14)
  %47 = load ptr, ptr @ip_dissector_table, align 8
  %48 = zext i8 %12 to i32
  %49 = tail call i32 @dissector_try_uint(ptr noundef %47, i32 noundef %48, ptr noundef %46, ptr noundef %1, ptr noundef %2)
  br label %50

50:                                               ; preds = %44, %45
  %51 = tail call i32 @tvb_captured_length(ptr noundef %0)
  ret i32 %51
}